target datalayout = "e-m:e-p270:32:32-p271:32:32-p272:64:64-i64:64-i128:128-f80:128-n8:16:32:64-S128"
target triple = "x86_64-pc-linux-gnu"

%struct.OSQPVectorf_ = type { ptr, i64 }

; Function Attrs: nounwind uwtable
define double @OSQPVectorf_dot_prod(ptr noundef %0, ptr noundef %1) #0 {
  %3 = alloca ptr, align 8
  %4 = alloca ptr, align 8
  %5 = alloca i64, align 8
  %6 = alloca i64, align 8
  %7 = alloca ptr, align 8
  %8 = alloca ptr, align 8
  %9 = alloca double, align 8
  store ptr %0, ptr %3, align 8
  store ptr %1, ptr %4, align 8
  %10 = load ptr, ptr %3, align 8
  %11 = getelementptr inbounds %struct.OSQPVectorf_, ptr %10, i32 0, i32 1
  %12 = load i64, ptr %11, align 8
  store i64 %12, ptr %6, align 8
  %13 = load ptr, ptr %3, align 8
  %14 = getelementptr inbounds %struct.OSQPVectorf_, ptr %13, i32 0, i32 0
  %15 = load ptr, ptr %14, align 8
  store ptr %15, ptr %7, align 8
  %16 = load ptr, ptr %4, align 8
  %17 = getelementptr inbounds %struct.OSQPVectorf_, ptr %16, i32 0, i32 0
  %18 = load ptr, ptr %17, align 8
  store ptr %18, ptr %8, align 8
  store double 0.000000e+00, ptr %9, align 8
  store i64 0, ptr %5, align 8
  br label %19

19:                                               ; preds = %34, %2
  %20 = load i64, ptr %5, align 8
  %21 = load i64, ptr %6, align 8
  %22 = icmp slt i64 %20, %21
  br i1 %22, label %23, label %37

23:                                               ; preds = %19
  %24 = load ptr, ptr %7, align 8
  %25 = load i64, ptr %5, align 8
  %26 = getelementptr inbounds double, ptr %24, i64 %25
  %27 = load double, ptr %26, align 8
  %28 = load ptr, ptr %8, align 8
  %29 = load i64, ptr %5, align 8
  %30 = getelementptr inbounds double, ptr %28, i64 %29
  %31 = load double, ptr %30, align 8
  %32 = load double, ptr %9, align 8
  %33 = call double @llvm.fmuladd.f64(double %27, double %31, double %32)
  store double %33, ptr %9, align 8
  br label %34

34:                                               ; preds = %23
  %35 = load i64, ptr %5, align 8
  %36 = add nsw i64 %35, 1
  store i64 %36, ptr %5, align 8
  br label %19, !llvm.loop !31

37:                                               ; preds = %19
  %38 = load double, ptr %9, align 8
  ret double %38
}

; Function Attrs: nounwind uwtable
define double @OSQPVectorf_dot_prod_signed(ptr noundef %0, ptr noundef %1, i64 noundef %2) #0 {
  %4 = alloca ptr, align 8
  %5 = alloca ptr, align 8
  %6 = alloca i64, align 8
  %7 = alloca i64, align 8
  %8 = alloca i64, align 8
  %9 = alloca ptr, align 8
  %10 = alloca ptr, align 8
  %11 = alloca double, align 8
  store ptr %0, ptr %4, align 8
  store ptr %1, ptr %5, align 8
  store i64 %2, ptr %6, align 8
  %12 = load ptr, ptr %4, align 8
  %13 = getelementptr inbounds %struct.OSQPVectorf_, ptr %12, i32 0, i32 1
  %14 = load i64, ptr %13, align 8
  store i64 %14, ptr %8, align 8
  %15 = load ptr, ptr %4, align 8
  %16 = getelementptr inbounds %struct.OSQPVectorf_, ptr %15, i32 0, i32 0
  %17 = load ptr, ptr %16, align 8
  store ptr %17, ptr %9, align 8
  %18 = load ptr, ptr %5, align 8
  %19 = getelementptr inbounds %struct.OSQPVectorf_, ptr %18, i32 0, i32 0
  %20 = load ptr, ptr %19, align 8
  store ptr %20, ptr %10, align 8
  store double 0.000000e+00, ptr %11, align 8
  %21 = load i64, ptr %6, align 8
  %22 = icmp eq i64 %21, 1
  br i1 %22, label %23, label %52

23:                                               ; preds = %3
  store i64 0, ptr %7, align 8
  br label %24

24:                                               ; preds = %48, %23
  %25 = load i64, ptr %7, align 8
  %26 = load i64, ptr %8, align 8
  %27 = icmp slt i64 %25, %26
  br i1 %27, label %28, label %51

28:                                               ; preds = %24
  %29 = load ptr, ptr %9, align 8
  %30 = load i64, ptr %7, align 8
  %31 = getelementptr inbounds double, ptr %29, i64 %30
  %32 = load double, ptr %31, align 8
  %33 = load ptr, ptr %10, align 8
  %34 = load i64, ptr %7, align 8
  %35 = getelementptr inbounds double, ptr %33, i64 %34
  %36 = load double, ptr %35, align 8
  %37 = fcmp ogt double %36, 0.000000e+00
  br i1 %37, label %38, label %43

38:                                               ; preds = %28
  %39 = load ptr, ptr %10, align 8
  %40 = load i64, ptr %7, align 8
  %41 = getelementptr inbounds double, ptr %39, i64 %40
  %42 = load double, ptr %41, align 8
  br label %44

43:                                               ; preds = %28
  br label %44

44:                                               ; preds = %43, %38
  %45 = phi double [ %42, %38 ], [ 0.000000e+00, %43 ]
  %46 = load double, ptr %11, align 8
  %47 = call double @llvm.fmuladd.f64(double %32, double %45, double %46)
  store double %47, ptr %11, align 8
  br label %48

48:                                               ; preds = %44
  %49 = load i64, ptr %7, align 8
  %50 = add nsw i64 %49, 1
  store i64 %50, ptr %7, align 8
  br label %24, !llvm.loop !32

51:                                               ; preds = %24
  br label %89

52:                                               ; preds = %3
  %53 = load i64, ptr %6, align 8
  %54 = icmp eq i64 %53, -1
  br i1 %54, label %55, label %84

55:                                               ; preds = %52
  store i64 0, ptr %7, align 8
  br label %56

56:                                               ; preds = %80, %55
  %57 = load i64, ptr %7, align 8
  %58 = load i64, ptr %8, align 8
  %59 = icmp slt i64 %57, %58
  br i1 %59, label %60, label %83

60:                                               ; preds = %56
  %61 = load ptr, ptr %9, align 8
  %62 = load i64, ptr %7, align 8
  %63 = getelementptr inbounds double, ptr %61, i64 %62
  %64 = load double, ptr %63, align 8
  %65 = load ptr, ptr %10, align 8
  %66 = load i64, ptr %7, align 8
  %67 = getelementptr inbounds double, ptr %65, i64 %66
  %68 = load double, ptr %67, align 8
  %69 = fcmp olt double %68, 0.000000e+00
  br i1 %69, label %70, label %75

70:                                               ; preds = %60
  %71 = load ptr, ptr %10, align 8
  %72 = load i64, ptr %7, align 8
  %73 = getelementptr inbounds double, ptr %71, i64 %72
  %74 = load double, ptr %73, align 8
  br label %76

75:                                               ; preds = %60
  br label %76

76:                                               ; preds = %75, %70
  %77 = phi double [ %74, %70 ], [ 0.000000e+00, %75 ]
  %78 = load double, ptr %11, align 8
  %79 = call double @llvm.fmuladd.f64(double %64, double %77, double %78)
  store double %79, ptr %11, align 8
  br label %80

80:                                               ; preds = %76
  %81 = load i64, ptr %7, align 8
  %82 = add nsw i64 %81, 1
  store i64 %82, ptr %7, align 8
  br label %56, !llvm.loop !33

83:                                               ; preds = %56
  br label %88

84:                                               ; preds = %52
  %85 = load ptr, ptr %4, align 8
  %86 = load ptr, ptr %5, align 8
  %87 = call double @OSQPVectorf_dot_prod(ptr noundef %85, ptr noundef %86)
  store double %87, ptr %11, align 8
  br label %88

88:                                               ; preds = %84, %83
  br label %89

89:                                               ; preds = %88, %51
  %90 = load double, ptr %11, align 8
  ret double %90
}