; Function Attrs: nofree norecurse nosync nounwind memory(read, inaccessiblemem: none) uwtable
define double @OSQPVectorf_dot_prod_signed(ptr nocapture noundef readonly %0, ptr nocapture noundef readonly %1, i64 noundef %2) local_unnamed_addr #0 {
  %4 = getelementptr inbounds i8, ptr %0, i64 8
  %5 = load i64, ptr %4, align 8
  %6 = load ptr, ptr %0, align 8
  %7 = load ptr, ptr %1, align 8
  %8 = icmp sgt i64 %5, 0
  switch i64 %2, label %25 [
    i64 1, label %.preheader
    i64 -1, label %.preheader33
  ]

.preheader33:                                     ; preds = %3
  br i1 %8, label %.lr.ph, label %OSQPVectorf_dot_prod.exit

.preheader:                                       ; preds = %3
  br i1 %8, label %.lr.ph39, label %OSQPVectorf_dot_prod.exit

.lr.ph39:                                         ; preds = %.preheader, %.lr.ph39
  %.038 = phi double [ %15, %.lr.ph39 ], [ 0.000000e+00, %.preheader ]
  %.02737 = phi i64 [ %16, %.lr.ph39 ], [ 0, %.preheader ]
  %9 = getelementptr inbounds double, ptr %6, i64 %.02737
  %10 = load double, ptr %9, align 8
  %11 = getelementptr inbounds double, ptr %7, i64 %.02737
  %12 = load double, ptr %11, align 8
  %13 = fcmp ogt double %12, 0.000000e+00
  %14 = select i1 %13, double %12, double 0.000000e+00
  %15 = tail call double @llvm.fmuladd.f64(double %10, double %14, double %.038)
  %16 = add nuw nsw i64 %.02737, 1
  %exitcond45.not = icmp eq i64 %16, %5
  br i1 %exitcond45.not, label %OSQPVectorf_dot_prod.exit, label %.lr.ph39, !llvm.loop !32

.lr.ph:                                           ; preds = %.preheader33, %.lr.ph
  %.136 = phi double [ %23, %.lr.ph ], [ 0.000000e+00, %.preheader33 ]
  %.12835 = phi i64 [ %24, %.lr.ph ], [ 0, %.preheader33 ]
  %17 = getelementptr inbounds double, ptr %6, i64 %.12835
  %18 = load double, ptr %17, align 8
  %19 = getelementptr inbounds double, ptr %7, i64 %.12835
  %20 = load double, ptr %19, align 8
  %21 = fcmp olt double %20, 0.000000e+00
  %22 = select i1 %21, double %20, double 0.000000e+00
  %23 = tail call double @llvm.fmuladd.f64(double %18, double %22, double %.136)
  %24 = add nuw nsw i64 %.12835, 1
  %exitcond.not = icmp eq i64 %24, %5
  br i1 %exitcond.not, label %OSQPVectorf_dot_prod.exit, label %.lr.ph, !llvm.loop !33

25:                                               ; preds = %3
  br i1 %8, label %.lr.ph.i, label %OSQPVectorf_dot_prod.exit

.lr.ph.i:                                         ; preds = %25, %.lr.ph.i
  %.013.i = phi double [ %30, %.lr.ph.i ], [ 0.000000e+00, %25 ]
  %.01112.i = phi i64 [ %31, %.lr.ph.i ], [ 0, %25 ]
  %26 = getelementptr inbounds double, ptr %6, i64 %.01112.i
  %27 = load double, ptr %26, align 8
  %28 = getelementptr inbounds double, ptr %7, i64 %.01112.i
  %29 = load double, ptr %28, align 8
  %30 = tail call double @llvm.fmuladd.f64(double %27, double %29, double %.013.i)
  %31 = add nuw nsw i64 %.01112.i, 1
  %exitcond.not.i = icmp eq i64 %31, %5
  br i1 %exitcond.not.i, label %OSQPVectorf_dot_prod.exit, label %.lr.ph.i, !llvm.loop !31

OSQPVectorf_dot_prod.exit:                        ; preds = %.lr.ph, %.lr.ph39, %.lr.ph.i, %.preheader33, %.preheader, %25
  %.2 = phi double [ 0.000000e+00, %25 ], [ 0.000000e+00, %.preheader ], [ 0.000000e+00, %.preheader33 ], [ %30, %.lr.ph.i ], [ %15, %.lr.ph39 ], [ %23, %.lr.ph ]
  ret double %.2
}